; Function Attrs: null_pointer_is_valid sspstrong uwtable
define internal range(i32 -1, 1) i32 @populate_profile_name(ptr noundef readonly captures(none) %0, ptr noundef captures(none) %1) #0 {
  %3 = load i32, ptr %0, align 8
  %4 = icmp eq i32 %3, 1
  br i1 %4, label %5, label %22

5:                                                ; preds = %2
  %6 = getelementptr inbounds nuw i8, ptr %0, i64 8
  %7 = load ptr, ptr %6, align 8
  %8 = load ptr, ptr %7, align 8
  %9 = getelementptr inbounds nuw i8, ptr %8, i64 8
  %10 = load i32, ptr %9, align 8
  %11 = icmp eq i32 %10, 1
  br i1 %11, label %12, label %22

12:                                               ; preds = %5
  %13 = getelementptr inbounds nuw i8, ptr %8, i64 24
  %14 = load ptr, ptr %13, align 8
  %.not = icmp eq ptr %14, null
  br i1 %.not, label %22, label %15

15:                                               ; preds = %12
  %16 = getelementptr inbounds nuw i8, ptr %1, i64 48
  %17 = load ptr, ptr %16, align 8
  %18 = getelementptr inbounds nuw i8, ptr %14, i64 80
  %19 = load ptr, ptr %18, align 8
  %20 = tail call noalias ptr @wmem_strdup(ptr noundef %17, ptr noundef %19)
  %21 = getelementptr inbounds nuw i8, ptr %1, i64 72
  store ptr %20, ptr %21, align 8
  br label %22

22:                                               ; preds = %2, %5, %12, %15
  %.0 = phi i32 [ 0, %15 ], [ -1, %12 ], [ -1, %5 ], [ -1, %2 ]
  ret i32 %.0
}